#include <math.h>
#include <stdio.h>
#include <stdlib.h>
#include <string.h>

int main()
{
	int n;
	scanf("%d",&n);
	struct student
	{
		int num;
		int yu;
		int shu;
	}a[100000];
	int d[100000];
	int i=0;;
	for(i=0;i<n;i++)
	{
		scanf("%d %d %d",&a[i].num,&a[i].yu,&a[i].shu);
		d[i]=a[i].yu+a[i].shu;
	}
	int q,w,e,h;
	q=0;
	w=0;e=0;
	for(i=0;i<n;i++)
	{
		if(d[q]<d[i])
		{
			q=i;
		}
	}
	for(i=0;i<n;i++)
	{
		if(d[q]>=d[i]&&i!=q&&d[w]<d[i])
		{
			w=i;
		}
	}
	for(i=0;i<n;i++)
	{
		if(d[w]>=d[i]&&i!=w&&i!=q&&d[e]<d[i])
		{
			e=i;
		}
	}
	printf("%d %d\n",a[q].num,d[q]);
	printf("%d %d\n",a[w].num,d[w]);
	printf("%d %d\n",a[e].num,d[e]);
	return 0;
}